target datalayout = "e-m:e-p270:32:32-p271:32:32-p272:64:64-i64:64-i128:128-f80:128-n8:16:32:64-S128"
target triple = "x86_64-pc-linux-gnu"

%"class.llvm::SmallVectorBase" = type { ptr, i32, i32 }
%"struct.(anonymous namespace)::MemorySanitizerVisitor" = type { ptr, ptr, %"class.llvm::SmallVector.201", %"class.llvm::SmallVector.201", %"class.llvm::ValueMap", %"class.llvm::ValueMap", %"class.std::unique_ptr.222", ptr, ptr, %"class.llvm::SmallVector.230", i8, i8, i8, i8, %"class.llvm::SmallVector.235", %"class.llvm::DenseMap.240", i8, %"class.llvm::SmallSetVector", %"class.llvm::SmallVector.251", %"class.llvm::SmallVector.256", i64 }
%"class.llvm::SmallVector.201" = type { %"class.llvm::SmallVectorImpl.202", %"struct.llvm::SmallVectorStorage.205" }
%"class.llvm::SmallVectorImpl.202" = type { %"class.llvm::SmallVectorTemplateBase.203" }
%"class.llvm::SmallVectorTemplateBase.203" = type { %"class.llvm::SmallVectorTemplateCommon.204" }
%"class.llvm::SmallVectorTemplateCommon.204" = type { %"class.llvm::SmallVectorBase" }
%"struct.llvm::SmallVectorStorage.205" = type { [128 x i8] }
%"class.llvm::ValueMap" = type { %"class.llvm::DenseMap.206", %"class.std::optional.209", [8 x i8] }
%"class.llvm::DenseMap.206" = type <{ ptr, i32, i32, i32, [4 x i8] }>
%"class.std::optional.209" = type { %"struct.std::_Optional_base.210" }
%"struct.std::_Optional_base.210" = type { %"struct.std::_Optional_payload.212" }
%"struct.std::_Optional_payload.212" = type { %"struct.std::_Optional_payload.base.219", [7 x i8] }
%"struct.std::_Optional_payload.base.219" = type { %"struct.std::_Optional_payload_base.base.218" }
%"struct.std::_Optional_payload_base.base.218" = type { %"union.std::_Optional_payload_base<llvm::DenseMap<const llvm::Metadata *, llvm::TrackingMDRef>>::_Storage", i8 }
%"union.std::_Optional_payload_base<llvm::DenseMap<const llvm::Metadata *, llvm::TrackingMDRef>>::_Storage" = type { %"class.llvm::DenseMap.215" }
%"class.llvm::DenseMap.215" = type <{ ptr, i32, i32, i32, [4 x i8] }>
%"class.std::unique_ptr.222" = type { %"struct.std::__uniq_ptr_data.223" }
%"struct.std::__uniq_ptr_data.223" = type { %"class.std::__uniq_ptr_impl.224" }
%"class.std::__uniq_ptr_impl.224" = type { %"class.std::tuple.225" }
%"class.std::tuple.225" = type { %"struct.std::_Tuple_impl.226" }
%"struct.std::_Tuple_impl.226" = type { %"struct.std::_Head_base.229" }
%"struct.std::_Head_base.229" = type { ptr }
%"class.llvm::SmallVector.230" = type { %"class.llvm::SmallVectorImpl.231", %"struct.llvm::SmallVectorStorage.234" }
%"class.llvm::SmallVectorImpl.231" = type { %"class.llvm::SmallVectorTemplateBase.232" }
%"class.llvm::SmallVectorTemplateBase.232" = type { %"class.llvm::SmallVectorTemplateCommon.233" }
%"class.llvm::SmallVectorTemplateCommon.233" = type { %"class.llvm::SmallVectorBase" }
%"struct.llvm::SmallVectorStorage.234" = type { [128 x i8] }
%"class.llvm::SmallVector.235" = type { %"class.llvm::SmallVectorImpl.236", %"struct.llvm::SmallVectorStorage.239" }
%"class.llvm::SmallVectorImpl.236" = type { %"class.llvm::SmallVectorTemplateBase.237" }
%"class.llvm::SmallVectorTemplateBase.237" = type { %"class.llvm::SmallVectorTemplateCommon.238" }
%"class.llvm::SmallVectorTemplateCommon.238" = type { %"class.llvm::SmallVectorBase" }
%"struct.llvm::SmallVectorStorage.239" = type { [384 x i8] }
%"class.llvm::DenseMap.240" = type <{ ptr, i32, i32, i32, [4 x i8] }>
%"class.llvm::SmallSetVector" = type { %"class.llvm::SetVector" }
%"class.llvm::SetVector" = type { %"class.llvm::DenseSet", %"class.llvm::SmallVector.246" }
%"class.llvm::DenseSet" = type { %"class.llvm::detail::DenseSetImpl" }
%"class.llvm::detail::DenseSetImpl" = type { %"class.llvm::DenseMap.243" }
%"class.llvm::DenseMap.243" = type <{ ptr, i32, i32, i32, [4 x i8] }>
%"class.llvm::SmallVector.246" = type { %"class.llvm::SmallVectorImpl.247", %"struct.llvm::SmallVectorStorage.250" }
%"class.llvm::SmallVectorImpl.247" = type { %"class.llvm::SmallVectorTemplateBase.248" }
%"class.llvm::SmallVectorTemplateBase.248" = type { %"class.llvm::SmallVectorTemplateCommon.249" }
%"class.llvm::SmallVectorTemplateCommon.249" = type { %"class.llvm::SmallVectorBase" }
%"struct.llvm::SmallVectorStorage.250" = type { [128 x i8] }
%"class.llvm::SmallVector.251" = type { %"class.llvm::SmallVectorImpl.252", %"struct.llvm::SmallVectorStorage.255" }
%"class.llvm::SmallVectorImpl.252" = type { %"class.llvm::SmallVectorTemplateBase.253" }
%"class.llvm::SmallVectorTemplateBase.253" = type { %"class.llvm::SmallVectorTemplateCommon.254" }
%"class.llvm::SmallVectorTemplateCommon.254" = type { %"class.llvm::SmallVectorBase" }
%"struct.llvm::SmallVectorStorage.255" = type { [256 x i8] }
%"class.llvm::SmallVector.256" = type { %"class.llvm::SmallVectorImpl.257", %"struct.llvm::SmallVectorStorage.260" }
%"class.llvm::SmallVectorImpl.257" = type { %"class.llvm::SmallVectorTemplateBase.258" }
%"class.llvm::SmallVectorTemplateBase.258" = type { %"class.llvm::SmallVectorTemplateCommon.259" }
%"class.llvm::SmallVectorTemplateCommon.259" = type { %"class.llvm::SmallVectorBase" }
%"struct.llvm::SmallVectorStorage.260" = type { [128 x i8] }
%"class.llvm::SmallVector.340" = type { %"class.llvm::SmallVectorImpl.341", %"struct.llvm::SmallVectorStorage.344" }
%"class.llvm::SmallVectorImpl.341" = type { %"class.llvm::SmallVectorTemplateBase.342" }
%"class.llvm::SmallVectorTemplateBase.342" = type { %"class.llvm::SmallVectorTemplateCommon.343" }
%"class.llvm::SmallVectorTemplateCommon.343" = type { %"class.llvm::SmallVectorBase" }
%"struct.llvm::SmallVectorStorage.344" = type { [32 x i8] }
%"class.llvm::ArrayRef.345" = type { ptr, i64 }

; Function Attrs: mustprogress nounwind uwtable
define linkonce_odr hidden noundef ptr @_ZNK4llvm25SmallVectorTemplateCommonIPNS_8ConstantEvE10getFirstElEv(ptr noundef nonnull align 8 dereferenceable(16) %0) #1 comdat align 2 {
  %2 = alloca ptr, align 8
  store ptr %0, ptr %2, align 8
  %3 = load ptr, ptr %2, align 8
  %4 = getelementptr inbounds i8, ptr %3, i64 16
  ret ptr %4
}

; Function Attrs: mustprogress nounwind uwtable
define linkonce_odr hidden void @_ZN4llvm25SmallVectorTemplateCommonIPNS_8ConstantEvEC2Em(ptr noundef nonnull align 8 dereferenceable(16) %0, i64 noundef %1) unnamed_addr #1 comdat align 2 {
  %3 = alloca ptr, align 8
  %4 = alloca i64, align 8
  store ptr %0, ptr %3, align 8
  store i64 %1, ptr %4, align 8
  %5 = load ptr, ptr %3, align 8
  %6 = call noundef ptr @_ZNK4llvm25SmallVectorTemplateCommonIPNS_8ConstantEvE10getFirstElEv(ptr noundef nonnull align 8 dereferenceable(16) %5)
  %7 = load i64, ptr %4, align 8
  call void @_ZN4llvm15SmallVectorBaseIjEC2EPvm(ptr noundef nonnull align 8 dereferenceable(16) %5, ptr noundef %6, i64 noundef %7)
  ret void
}

; Function Attrs: mustprogress nounwind uwtable
define linkonce_odr hidden noundef zeroext i1 @_ZNK4llvm25SmallVectorTemplateCommonIPNS_8ConstantEvE7isSmallEv(ptr noundef nonnull align 8 dereferenceable(16) %0) #1 comdat align 2 {
  %2 = alloca ptr, align 8
  store ptr %0, ptr %2, align 8
  %3 = load ptr, ptr %2, align 8
  %4 = getelementptr inbounds nuw %"class.llvm::SmallVectorBase", ptr %3, i32 0, i32 0
  %5 = load ptr, ptr %4, align 8
  %6 = call noundef ptr @_ZNK4llvm25SmallVectorTemplateCommonIPNS_8ConstantEvE10getFirstElEv(ptr noundef nonnull align 8 dereferenceable(16) %3)
  %7 = icmp eq ptr %5, %6
  ret i1 %7
}

; Function Attrs: mustprogress nounwind uwtable
define linkonce_odr hidden noundef ptr @_ZNK4llvm25SmallVectorTemplateCommonIPNS_8ConstantEvE5beginEv(ptr noundef nonnull align 8 dereferenceable(16) %0) #1 comdat align 2 {
  %2 = alloca ptr, align 8
  store ptr %0, ptr %2, align 8
  %3 = load ptr, ptr %2, align 8
  %4 = getelementptr inbounds nuw %"class.llvm::SmallVectorBase", ptr %3, i32 0, i32 0
  %5 = load ptr, ptr %4, align 8
  ret ptr %5
}

; Function Attrs: mustprogress nounwind uwtable
define linkonce_odr hidden void @_ZN4llvm23SmallVectorTemplateBaseIPNS_8ConstantELb1EEC2Em(ptr noundef nonnull align 8 dereferenceable(16) %0, i64 noundef %1) unnamed_addr #1 comdat align 2 {
  %3 = alloca ptr, align 8
  %4 = alloca i64, align 8
  store ptr %0, ptr %3, align 8
  store i64 %1, ptr %4, align 8
  %5 = load ptr, ptr %3, align 8
  %6 = load i64, ptr %4, align 8
  call void @_ZN4llvm25SmallVectorTemplateCommonIPNS_8ConstantEvEC2Em(ptr noundef nonnull align 8 dereferenceable(16) %5, i64 noundef %6)
  ret void
}

; Function Attrs: mustprogress nounwind uwtable
define linkonce_odr hidden void @_ZN4llvm15SmallVectorImplIPNS_8ConstantEED2Ev(ptr noundef nonnull align 8 dereferenceable(16) %0) unnamed_addr #1 comdat align 2 {
  %2 = alloca ptr, align 8
  store ptr %0, ptr %2, align 8
  %3 = load ptr, ptr %2, align 8
  %4 = call noundef zeroext i1 @_ZNK4llvm25SmallVectorTemplateCommonIPNS_8ConstantEvE7isSmallEv(ptr noundef nonnull align 8 dereferenceable(16) %3)
  br i1 %4, label %7, label %5

5:                                                ; preds = %1
  %6 = call noundef ptr @_ZN4llvm25SmallVectorTemplateCommonIPNS_8ConstantEvE5beginEv(ptr noundef nonnull align 8 dereferenceable(16) %3)
  call void @free(ptr noundef %6) #2
  br label %7

7:                                                ; preds = %5, %1
  ret void
}

; Function Attrs: mustprogress nounwind uwtable
define linkonce_odr hidden void @_ZN4llvm23SmallVectorTemplateBaseIPNS_8ConstantELb1EE13destroy_rangeEPS2_S4_(ptr noundef %0, ptr noundef %1) #1 comdat align 2 {
  %3 = alloca ptr, align 8
  %4 = alloca ptr, align 8
  store ptr %0, ptr %3, align 8
  store ptr %1, ptr %4, align 8
  ret void
}

; Function Attrs: mustprogress nounwind uwtable
define linkonce_odr hidden noundef ptr @_ZNK4llvm25SmallVectorTemplateCommonIPNS_8ConstantEvE4dataEv(ptr noundef nonnull align 8 dereferenceable(16) %0) #1 comdat align 2 {
  %2 = alloca ptr, align 8
  store ptr %0, ptr %2, align 8
  %3 = load ptr, ptr %2, align 8
  %4 = call noundef ptr @_ZNK4llvm25SmallVectorTemplateCommonIPNS_8ConstantEvE5beginEv(ptr noundef nonnull align 8 dereferenceable(16) %3)
  ret ptr %4
}

; Function Attrs: mustprogress nounwind uwtable
define linkonce_odr hidden void @_ZN4llvm15SmallVectorImplIPNS_8ConstantEE6resizeEm(ptr noundef nonnull align 8 dereferenceable(16) %0, i64 noundef %1) #1 comdat align 2 {
  %3 = alloca ptr, align 8
  %4 = alloca i64, align 8
  store ptr %0, ptr %3, align 8
  store i64 %1, ptr %4, align 8
  %5 = load ptr, ptr %3, align 8
  %6 = load i64, ptr %4, align 8
  call void @_ZN4llvm15SmallVectorImplIPNS_8ConstantEE10resizeImplILb0EEEvm(ptr noundef nonnull align 8 dereferenceable(16) %5, i64 noundef %6)
  ret void
}

; Function Attrs: mustprogress nounwind uwtable
define linkonce_odr hidden void @_ZN4llvm15SmallVectorImplIPNS_8ConstantEEC2Ej(ptr noundef nonnull align 8 dereferenceable(16) %0, i32 noundef %1) unnamed_addr #1 comdat align 2 {
  %3 = alloca ptr, align 8
  %4 = alloca i32, align 4
  store ptr %0, ptr %3, align 8
  store i32 %1, ptr %4, align 4
  %5 = load ptr, ptr %3, align 8
  %6 = load i32, ptr %4, align 4
  %7 = zext i32 %6 to i64
  call void @_ZN4llvm23SmallVectorTemplateBaseIPNS_8ConstantELb1EEC2Em(ptr noundef nonnull align 8 dereferenceable(16) %5, i64 noundef %7)
  ret void
}

; Function Attrs: mustprogress nounwind uwtable
define linkonce_odr hidden void @_ZN4llvm11SmallVectorIPNS_8ConstantELj4EED2Ev(ptr noundef nonnull align 8 dereferenceable(48) %0) unnamed_addr #1 comdat align 2 {
  %2 = alloca ptr, align 8
  store ptr %0, ptr %2, align 8
  %3 = load ptr, ptr %2, align 8
  %4 = call noundef ptr @_ZN4llvm25SmallVectorTemplateCommonIPNS_8ConstantEvE5beginEv(ptr noundef nonnull align 8 dereferenceable(16) %3)
  %5 = call noundef ptr @_ZN4llvm25SmallVectorTemplateCommonIPNS_8ConstantEvE3endEv(ptr noundef nonnull align 8 dereferenceable(16) %3)
  call void @_ZN4llvm23SmallVectorTemplateBaseIPNS_8ConstantELb1EE13destroy_rangeEPS2_S4_(ptr noundef %4, ptr noundef %5)
  call void @_ZN4llvm15SmallVectorImplIPNS_8ConstantEED2Ev(ptr noundef nonnull align 8 dereferenceable(16) %3) #2
  ret void
}

; Function Attrs: mustprogress nounwind uwtable
define linkonce_odr hidden void @_ZN4llvm8ArrayRefIPNS_8ConstantEEC2IvEERKNS_25SmallVectorTemplateCommonIS2_T_EE(ptr noundef nonnull align 8 dereferenceable(16) %0, ptr noundef nonnull align 8 dereferenceable(16) %1) unnamed_addr #1 comdat align 2 {
  %3 = alloca ptr, align 8
  %4 = alloca ptr, align 8
  store ptr %0, ptr %3, align 8
  store ptr %1, ptr %4, align 8
  %5 = load ptr, ptr %3, align 8
  %6 = getelementptr inbounds nuw %"class.llvm::ArrayRef.345", ptr %5, i32 0, i32 0
  %7 = load ptr, ptr %4, align 8
  %8 = call noundef ptr @_ZNK4llvm25SmallVectorTemplateCommonIPNS_8ConstantEvE4dataEv(ptr noundef nonnull align 8 dereferenceable(16) %7)
  store ptr %8, ptr %6, align 8
  %9 = getelementptr inbounds nuw %"class.llvm::ArrayRef.345", ptr %5, i32 0, i32 1
  %10 = load ptr, ptr %4, align 8
  %11 = call noundef i64 @_ZNK4llvm15SmallVectorBaseIjE4sizeEv(ptr noundef nonnull align 8 dereferenceable(16) %10)
  store i64 %11, ptr %9, align 8
  ret void
}

; Function Attrs: mustprogress nounwind uwtable
define linkonce_odr hidden noundef ptr @_ZN4llvm25SmallVectorTemplateCommonIPNS_8ConstantEvE3endEv(ptr noundef nonnull align 8 dereferenceable(16) %0) #1 comdat align 2 {
  %2 = alloca ptr, align 8
  store ptr %0, ptr %2, align 8
  %3 = load ptr, ptr %2, align 8
  %4 = call noundef ptr @_ZN4llvm25SmallVectorTemplateCommonIPNS_8ConstantEvE5beginEv(ptr noundef nonnull align 8 dereferenceable(16) %3)
  %5 = call noundef i64 @_ZNK4llvm15SmallVectorBaseIjE4sizeEv(ptr noundef nonnull align 8 dereferenceable(16) %3)
  %6 = getelementptr inbounds ptr, ptr %4, i64 %5
  ret ptr %6
}

; Function Attrs: mustprogress nounwind uwtable
define linkonce_odr hidden noundef ptr @_ZN4llvm25SmallVectorTemplateCommonIPNS_8ConstantEvE5beginEv(ptr noundef nonnull align 8 dereferenceable(16) %0) #1 comdat align 2 {
  %2 = alloca ptr, align 8
  store ptr %0, ptr %2, align 8
  %3 = load ptr, ptr %2, align 8
  %4 = getelementptr inbounds nuw %"class.llvm::SmallVectorBase", ptr %3, i32 0, i32 0
  %5 = load ptr, ptr %4, align 8
  ret ptr %5
}

; Function Attrs: mustprogress nounwind uwtable
define linkonce_odr hidden void @_ZN4llvm11SmallVectorIPNS_8ConstantELj4EEC2Em(ptr noundef nonnull align 8 dereferenceable(48) %0, i64 noundef %1) unnamed_addr #1 comdat align 2 {
  %3 = alloca ptr, align 8
  %4 = alloca i64, align 8
  store ptr %0, ptr %3, align 8
  store i64 %1, ptr %4, align 8
  %5 = load ptr, ptr %3, align 8
  call void @_ZN4llvm15SmallVectorImplIPNS_8ConstantEEC2Ej(ptr noundef nonnull align 8 dereferenceable(16) %5, i32 noundef 4)
  %6 = load i64, ptr %4, align 8
  call void @_ZN4llvm15SmallVectorImplIPNS_8ConstantEE6resizeEm(ptr noundef nonnull align 8 dereferenceable(16) %5, i64 noundef %6)
  ret void
}

; Function Attrs: mustprogress nounwind uwtable
define internal noundef ptr @_ZN12_GLOBAL__N_122MemorySanitizerVisitor13createDppMaskEjj(ptr noundef nonnull align 8 dereferenceable(1632) %0, i32 noundef %1, i32 noundef %2) #1 align 2 {
  %4 = alloca ptr, align 8
  %5 = alloca i32, align 4
  %6 = alloca i32, align 4
  %7 = alloca %"class.llvm::SmallVector.340", align 8
  %8 = alloca ptr, align 8
  %9 = alloca ptr, align 8
  %10 = alloca ptr, align 8
  %11 = alloca ptr, align 8
  %12 = alloca %"class.llvm::ArrayRef.345", align 8
  store ptr %0, ptr %4, align 8
  store i32 %1, ptr %5, align 4
  store i32 %2, ptr %6, align 4
  %13 = load ptr, ptr %4, align 8
  %14 = load i32, ptr %5, align 4
  %15 = zext i32 %14 to i64
  call void @_ZN4llvm11SmallVectorIPNS_8ConstantELj4EEC2Em(ptr noundef nonnull align 8 dereferenceable(48) %7, i64 noundef %15)
  store ptr %7, ptr %8, align 8
  %16 = load ptr, ptr %8, align 8
  %17 = call noundef ptr @_ZN4llvm25SmallVectorTemplateCommonIPNS_8ConstantEvE5beginEv(ptr noundef nonnull align 8 dereferenceable(16) %16)
  store ptr %17, ptr %9, align 8
  %18 = load ptr, ptr %8, align 8
  %19 = call noundef ptr @_ZN4llvm25SmallVectorTemplateCommonIPNS_8ConstantEvE3endEv(ptr noundef nonnull align 8 dereferenceable(16) %18)
  store ptr %19, ptr %10, align 8
  br label %20

20:                                               ; preds = %36, %3
  %21 = load ptr, ptr %9, align 8
  %22 = load ptr, ptr %10, align 8
  %23 = icmp ne ptr %21, %22
  br i1 %23, label %24, label %39

24:                                               ; preds = %20
  %25 = load ptr, ptr %9, align 8
  store ptr %25, ptr %11, align 8
  %26 = getelementptr inbounds nuw %"struct.(anonymous namespace)::MemorySanitizerVisitor", ptr %13, i32 0, i32 0
  %27 = load ptr, ptr %26, align 8
  %28 = call noundef nonnull align 8 dereferenceable(8) ptr @_ZNK4llvm8Function10getContextEv(ptr noundef nonnull align 8 dereferenceable(136) %27)
  %29 = load i32, ptr %6, align 4
  %30 = and i32 %29, 1
  %31 = icmp ne i32 %30, 0
  %32 = call noundef ptr @_ZN4llvm11ConstantInt7getBoolERNS_11LLVMContextEb(ptr noundef nonnull align 8 dereferenceable(8) %28, i1 noundef zeroext %31)
  %33 = load ptr, ptr %11, align 8
  store ptr %32, ptr %33, align 8
  %34 = load i32, ptr %6, align 4
  %35 = lshr i32 %34, 1
  store i32 %35, ptr %6, align 4
  br label %36

36:                                               ; preds = %24
  %37 = load ptr, ptr %9, align 8
  %38 = getelementptr inbounds ptr, ptr %37, i32 1
  store ptr %38, ptr %9, align 8
  br label %20

39:                                               ; preds = %20
  call void @_ZN4llvm8ArrayRefIPNS_8ConstantEEC2IvEERKNS_25SmallVectorTemplateCommonIS2_T_EE(ptr noundef nonnull align 8 dereferenceable(16) %12, ptr noundef nonnull align 8 dereferenceable(16) %7)
  %40 = getelementptr inbounds nuw { ptr, i64 }, ptr %12, i32 0, i32 0
  %41 = load ptr, ptr %40, align 8
  %42 = getelementptr inbounds nuw { ptr, i64 }, ptr %12, i32 0, i32 1
  %43 = load i64, ptr %42, align 8
  %44 = call noundef ptr @_ZN4llvm14ConstantVector3getENS_8ArrayRefIPNS_8ConstantEEE(ptr %41, i64 %43)
  call void @_ZN4llvm11SmallVectorIPNS_8ConstantELj4EED2Ev(ptr noundef nonnull align 8 dereferenceable(48) %7) #2
  ret ptr %44
}