; Function Attrs: mustprogress nounwind uwtable
define internal fastcc noundef ptr @_ZN12_GLOBAL__N_122MemorySanitizerVisitor13createDppMaskEjj(ptr nocapture noundef nonnull readonly align 8 dereferenceable(1632) %0, i32 noundef %1, i32 noundef %2) unnamed_addr #0 align 2 {
  %4 = alloca %"class.llvm::SmallVector.340", align 8
  %5 = zext i32 %1 to i64
  %6 = getelementptr inbounds i8, ptr %4, i64 16
  call void @_ZN4llvm15SmallVectorBaseIjEC2EPvm(ptr noundef nonnull align 8 dereferenceable(16) %4, ptr noundef nonnull %6, i64 noundef 4) #23
  call void @_ZN4llvm15SmallVectorImplIPNS_8ConstantEE10resizeImplILb0EEEvm(ptr noundef nonnull align 8 dereferenceable(16) %4, i64 noundef %5)
  %7 = load ptr, ptr %4, align 8
  %8 = call noundef i64 @_ZNK4llvm15SmallVectorBaseIjE4sizeEv(ptr noundef nonnull align 8 dereferenceable(16) %4) #23
  %9 = getelementptr inbounds ptr, ptr %7, i64 %8
  %.not11 = icmp eq i64 %8, 0
  br i1 %.not11, label %._crit_edge, label %.lr.ph

.lr.ph:                                           ; preds = %3, %.lr.ph
  %.013 = phi i32 [ %15, %.lr.ph ], [ %2, %3 ]
  %.01012 = phi ptr [ %16, %.lr.ph ], [ %7, %3 ]
  %10 = load ptr, ptr %0, align 8
  %11 = call noundef nonnull align 8 dereferenceable(8) ptr @_ZNK4llvm8Function10getContextEv(ptr noundef nonnull align 8 dereferenceable(136) %10) #23
  %12 = and i32 %.013, 1
  %13 = icmp ne i32 %12, 0
  %14 = call noundef ptr @_ZN4llvm11ConstantInt7getBoolERNS_11LLVMContextEb(ptr noundef nonnull align 8 dereferenceable(8) %11, i1 noundef zeroext %13) #23
  store ptr %14, ptr %.01012, align 8
  %15 = lshr i32 %.013, 1
  %16 = getelementptr inbounds i8, ptr %.01012, i64 8
  %.not = icmp eq ptr %16, %9
  br i1 %.not, label %._crit_edge, label %.lr.ph

._crit_edge:                                      ; preds = %.lr.ph, %3
  %17 = load ptr, ptr %4, align 8
  %18 = call noundef i64 @_ZNK4llvm15SmallVectorBaseIjE4sizeEv(ptr noundef nonnull align 8 dereferenceable(16) %4) #23
  %19 = call noundef ptr @_ZN4llvm14ConstantVector3getENS_8ArrayRefIPNS_8ConstantEEE(ptr %17, i64 %18) #23
  %20 = call noundef i64 @_ZNK4llvm15SmallVectorBaseIjE4sizeEv(ptr noundef nonnull align 8 dereferenceable(16) %4) #23
  %21 = load ptr, ptr %4, align 8
  %22 = icmp eq ptr %21, %6
  br i1 %22, label %_ZN4llvm11SmallVectorIPNS_8ConstantELj4EED2Ev.exit, label %23

23:                                               ; preds = %._crit_edge
  call void @free(ptr noundef %21) #23
  br label %_ZN4llvm11SmallVectorIPNS_8ConstantELj4EED2Ev.exit

_ZN4llvm11SmallVectorIPNS_8ConstantELj4EED2Ev.exit: ; preds = %._crit_edge, %23
  ret ptr %19
}